; ModuleID = '21/1565.c'
source_filename = "21/1565.c"
target datalayout = "e-m:e-p270:32:32-p271:32:32-p272:64:64-i64:64-f80:128-n8:16:32:64-S128"
target triple = "x86_64-pc-linux-gnu"

@.str = private unnamed_addr constant [3 x i8] c"%d\00", align 1
@.str.1 = private unnamed_addr constant [6 x i8] c"%d,%d\00", align 1

; Function Attrs: noinline nounwind uwtable
define dso_local void @main() #0 {
  %1 = alloca i32, align 4
  %2 = alloca i32, align 4
  %3 = alloca i32, align 4
  %4 = alloca [301 x i32], align 16
  %5 = alloca i32, align 4
  %6 = alloca i32, align 4
  %7 = alloca float, align 4
  %8 = call i32 (i8*, ...) @__isoc99_scanf(i8* getelementptr inbounds ([3 x i8], [3 x i8]* @.str, i64 0, i64 0), i32* %1)
  store i32 1, i32* %2, align 4
  br label %9

9:                                                ; preds = %18, %0
  %10 = load i32, i32* %2, align 4
  %11 = load i32, i32* %1, align 4
  %12 = icmp sle i32 %10, %11
  br i1 %12, label %13, label %21

13:                                               ; preds = %9
  %14 = load i32, i32* %2, align 4
  %15 = sext i32 %14 to i64
  %16 = getelementptr inbounds [301 x i32], [301 x i32]* %4, i64 0, i64 %15
  %17 = call i32 (i8*, ...) @__isoc99_scanf(i8* getelementptr inbounds ([3 x i8], [3 x i8]* @.str, i64 0, i64 0), i32* %16)
  br label %18

18:                                               ; preds = %13
  %19 = load i32, i32* %2, align 4
  %20 = add nsw i32 %19, 1
  store i32 %20, i32* %2, align 4
  br label %9

21:                                               ; preds = %9
  store i32 0, i32* %5, align 4
  store i32 1, i32* %2, align 4
  br label %22

22:                                               ; preds = %33, %21
  %23 = load i32, i32* %2, align 4
  %24 = load i32, i32* %1, align 4
  %25 = icmp sle i32 %23, %24
  br i1 %25, label %26, label %36

26:                                               ; preds = %22
  %27 = load i32, i32* %5, align 4
  %28 = load i32, i32* %2, align 4
  %29 = sext i32 %28 to i64
  %30 = getelementptr inbounds [301 x i32], [301 x i32]* %4, i64 0, i64 %29
  %31 = load i32, i32* %30, align 4
  %32 = add nsw i32 %27, %31
  store i32 %32, i32* %5, align 4
  br label %33

33:                                               ; preds = %26
  %34 = load i32, i32* %2, align 4
  %35 = add nsw i32 %34, 1
  store i32 %35, i32* %2, align 4
  br label %22

36:                                               ; preds = %22
  %37 = load i32, i32* %5, align 4
  %38 = sitofp i32 %37 to float
  %39 = load i32, i32* %1, align 4
  %40 = sitofp i32 %39 to float
  %41 = fdiv float %38, %40
  store float %41, float* %7, align 4
  store i32 1, i32* %2, align 4
  br label %42

42:                                               ; preds = %86, %36
  %43 = load i32, i32* %2, align 4
  %44 = load i32, i32* %1, align 4
  %45 = icmp slt i32 %43, %44
  br i1 %45, label %46, label %89

46:                                               ; preds = %42
  %47 = load i32, i32* %2, align 4
  store i32 %47, i32* %3, align 4
  br label %48

48:                                               ; preds = %82, %46
  %49 = load i32, i32* %3, align 4
  %50 = load i32, i32* %1, align 4
  %51 = icmp slt i32 %49, %50
  br i1 %51, label %52, label %85

52:                                               ; preds = %48
  %53 = load i32, i32* %3, align 4
  %54 = sext i32 %53 to i64
  %55 = getelementptr inbounds [301 x i32], [301 x i32]* %4, i64 0, i64 %54
  %56 = load i32, i32* %55, align 4
  %57 = load i32, i32* %3, align 4
  %58 = add nsw i32 %57, 1
  %59 = sext i32 %58 to i64
  %60 = getelementptr inbounds [301 x i32], [301 x i32]* %4, i64 0, i64 %59
  %61 = load i32, i32* %60, align 4
  %62 = icmp sgt i32 %56, %61
  br i1 %62, label %63, label %81

63:                                               ; preds = %52
  %64 = load i32, i32* %3, align 4
  %65 = sext i32 %64 to i64
  %66 = getelementptr inbounds [301 x i32], [301 x i32]* %4, i64 0, i64 %65
  %67 = load i32, i32* %66, align 4
  store i32 %67, i32* %6, align 4
  %68 = load i32, i32* %3, align 4
  %69 = add nsw i32 %68, 1
  %70 = sext i32 %69 to i64
  %71 = getelementptr inbounds [301 x i32], [301 x i32]* %4, i64 0, i64 %70
  %72 = load i32, i32* %71, align 4
  %73 = load i32, i32* %3, align 4
  %74 = sext i32 %73 to i64
  %75 = getelementptr inbounds [301 x i32], [301 x i32]* %4, i64 0, i64 %74
  store i32 %72, i32* %75, align 4
  %76 = load i32, i32* %6, align 4
  %77 = load i32, i32* %3, align 4
  %78 = add nsw i32 %77, 1
  %79 = sext i32 %78 to i64
  %80 = getelementptr inbounds [301 x i32], [301 x i32]* %4, i64 0, i64 %79
  store i32 %76, i32* %80, align 4
  br label %81

81:                                               ; preds = %63, %52
  br label %82

82:                                               ; preds = %81
  %83 = load i32, i32* %3, align 4
  %84 = add nsw i32 %83, 1
  store i32 %84, i32* %3, align 4
  br label %48

85:                                               ; preds = %48
  br label %86

86:                                               ; preds = %85
  %87 = load i32, i32* %2, align 4
  %88 = add nsw i32 %87, 1
  store i32 %88, i32* %2, align 4
  br label %42

89:                                               ; preds = %42
  %90 = load float, float* %7, align 4
  %91 = getelementptr inbounds [301 x i32], [301 x i32]* %4, i64 0, i64 1
  %92 = load i32, i32* %91, align 4
  %93 = sitofp i32 %92 to float
  %94 = fsub float %90, %93
  %95 = load i32, i32* %1, align 4
  %96 = sext i32 %95 to i64
  %97 = getelementptr inbounds [301 x i32], [301 x i32]* %4, i64 0, i64 %96
  %98 = load i32, i32* %97, align 4
  %99 = sitofp i32 %98 to float
  %100 = load float, float* %7, align 4
  %101 = fsub float %99, %100
  %102 = fcmp ogt float %94, %101
  br i1 %102, label %103, label %107

103:                                              ; preds = %89
  %104 = getelementptr inbounds [301 x i32], [301 x i32]* %4, i64 0, i64 1
  %105 = load i32, i32* %104, align 4
  %106 = call i32 (i8*, ...) @printf(i8* getelementptr inbounds ([3 x i8], [3 x i8]* @.str, i64 0, i64 0), i32 %105)
  br label %136

107:                                              ; preds = %89
  %108 = load float, float* %7, align 4
  %109 = getelementptr inbounds [301 x i32], [301 x i32]* %4, i64 0, i64 1
  %110 = load i32, i32* %109, align 4
  %111 = sitofp i32 %110 to float
  %112 = fsub float %108, %111
  %113 = load i32, i32* %1, align 4
  %114 = sext i32 %113 to i64
  %115 = getelementptr inbounds [301 x i32], [301 x i32]* %4, i64 0, i64 %114
  %116 = load i32, i32* %115, align 4
  %117 = sitofp i32 %116 to float
  %118 = load float, float* %7, align 4
  %119 = fsub float %117, %118
  %120 = fcmp olt float %112, %119
  br i1 %120, label %121, label %127

121:                                              ; preds = %107
  %122 = load i32, i32* %1, align 4
  %123 = sext i32 %122 to i64
  %124 = getelementptr inbounds [301 x i32], [301 x i32]* %4, i64 0, i64 %123
  %125 = load i32, i32* %124, align 4
  %126 = call i32 (i8*, ...) @printf(i8* getelementptr inbounds ([3 x i8], [3 x i8]* @.str, i64 0, i64 0), i32 %125)
  br label %135

127:                                              ; preds = %107
  %128 = getelementptr inbounds [301 x i32], [301 x i32]* %4, i64 0, i64 1
  %129 = load i32, i32* %128, align 4
  %130 = load i32, i32* %1, align 4
  %131 = sext i32 %130 to i64
  %132 = getelementptr inbounds [301 x i32], [301 x i32]* %4, i64 0, i64 %131
  %133 = load i32, i32* %132, align 4
  %134 = call i32 (i8*, ...) @printf(i8* getelementptr inbounds ([6 x i8], [6 x i8]* @.str.1, i64 0, i64 0), i32 %129, i32 %133)
  br label %135

135:                                              ; preds = %127, %121
  br label %136

136:                                              ; preds = %135, %103
  ret void
}

declare dso_local i32 @__isoc99_scanf(i8*, ...) #1

declare dso_local i32 @printf(i8*, ...) #1


!llvm.module.flags = !{!0}
!llvm.ident = !{!1}

!0 = !{i32 1, !"wchar_size", i32 4}
!1 = !{!"clang version 10.0.0-4ubuntu1 "}
